target datalayout = "e-m:e-p270:32:32-p271:32:32-p272:64:64-i64:64-i128:128-f80:128-n8:16:32:64-S128"
target triple = "x86_64-pc-linux-gnu"

@registered_log_writer_data_free = internal global ptr null, align 8
@registered_log_writer_data = internal global ptr null, align 8
@registered_log_writer = internal global ptr null, align 8

; Function Attrs: null_pointer_is_valid sspstrong uwtable
define void @ws_log_set_writer(ptr noundef %0) #1 {
  %2 = alloca ptr, align 8
  store ptr %0, ptr %2, align 8
  %3 = load ptr, ptr @registered_log_writer_data_free, align 8
  %4 = icmp ne ptr %3, null
  br i1 %4, label %5, label %8

5:                                                ; preds = %1
  %6 = load ptr, ptr @registered_log_writer_data_free, align 8
  %7 = load ptr, ptr @registered_log_writer_data, align 8
  call void %6(ptr noundef %7)
  br label %8

8:                                                ; preds = %5, %1
  %9 = load ptr, ptr %2, align 8
  store ptr %9, ptr @registered_log_writer, align 8
  store ptr null, ptr @registered_log_writer_data, align 8
  store ptr null, ptr @registered_log_writer_data_free, align 8
  ret void
}