; Function Attrs: null_pointer_is_valid sspstrong uwtable
define void @ws_log_set_writer(ptr noundef %0) local_unnamed_addr #1 {
  %2 = load ptr, ptr @registered_log_writer_data_free, align 8
  %.not = icmp eq ptr %2, null
  br i1 %.not, label %5, label %3

3:                                                ; preds = %1
  %4 = load ptr, ptr @registered_log_writer_data, align 8
  tail call void %2(ptr noundef %4)
  br label %5

5:                                                ; preds = %3, %1
  store ptr %0, ptr @registered_log_writer, align 8
  store ptr null, ptr @registered_log_writer_data, align 8
  store ptr null, ptr @registered_log_writer_data_free, align 8
  ret void
}